; Function Attrs: mustprogress uwtable
define void @_ZN5Yosys3AST7BindingC2ENS_5RTLIL8IdStringES3_RKNS0_7AstNodeE(ptr noundef nonnull align 8 dereferenceable(32) %0, ptr noundef readonly captures(none) %1, ptr noundef readonly captures(none) %2, ptr noundef nonnull align 8 dereferenceable(284) %3) unnamed_addr #3 align 2 personality ptr @__gxx_personality_v0 {
  %5 = alloca %"struct.Yosys::RTLIL::IdString", align 4
  %6 = alloca %"struct.Yosys::RTLIL::IdString", align 4
  %7 = load i32, ptr %1, align 4, !tbaa !6
  %.not.i.i = icmp eq i32 %7, 0
  br i1 %.not.i.i, label %_ZN5Yosys5RTLIL8IdStringC2ERKS1_.exit, label %8

8:                                                ; preds = %4
  %9 = sext i32 %7 to i64
  %10 = load ptr, ptr @_ZN5Yosys5RTLIL8IdString24global_refcount_storage_E, align 8, !tbaa !11
  %11 = getelementptr inbounds nuw i32, ptr %10, i64 %9
  %12 = load i32, ptr %11, align 4, !tbaa !15
  %13 = add nsw i32 %12, 1
  store i32 %13, ptr %11, align 4, !tbaa !15
  br label %_ZN5Yosys5RTLIL8IdStringC2ERKS1_.exit

_ZN5Yosys5RTLIL8IdStringC2ERKS1_.exit:            ; preds = %4, %8
  store i32 %7, ptr %5, align 4, !tbaa !6
  %14 = load i32, ptr %2, align 4, !tbaa !6
  %.not.i.i8 = icmp eq i32 %14, 0
  br i1 %.not.i.i8, label %21, label %15

15:                                               ; preds = %_ZN5Yosys5RTLIL8IdStringC2ERKS1_.exit
  %16 = sext i32 %14 to i64
  %17 = load ptr, ptr @_ZN5Yosys5RTLIL8IdString24global_refcount_storage_E, align 8, !tbaa !11
  %18 = getelementptr inbounds nuw i32, ptr %17, i64 %16
  %19 = load i32, ptr %18, align 4, !tbaa !15
  %20 = add nsw i32 %19, 1
  store i32 %20, ptr %18, align 4, !tbaa !15
  br label %21

21:                                               ; preds = %15, %_ZN5Yosys5RTLIL8IdStringC2ERKS1_.exit
  store i32 %14, ptr %6, align 4, !tbaa !6
  invoke void @_ZN5Yosys5RTLIL7BindingC2ENS0_8IdStringES2_(ptr noundef nonnull align 8 dereferenceable(20) %0, ptr noundef nonnull %5, ptr noundef nonnull %6)
          to label %22 unwind label %56

22:                                               ; preds = %21
  %23 = load i32, ptr %6, align 4, !tbaa !6
  %24 = load i8, ptr @_ZN5Yosys5RTLIL8IdString17destruct_guard_okE, align 1, !tbaa !16, !range !18, !noundef !19
  %25 = trunc nuw i8 %24 to i1
  %26 = icmp ne i32 %23, 0
  %or.cond.i.i = and i1 %26, %25
  br i1 %or.cond.i.i, label %27, label %_ZN5Yosys5RTLIL8IdStringD2Ev.exit

27:                                               ; preds = %22
  %28 = sext i32 %23 to i64
  %29 = load ptr, ptr @_ZN5Yosys5RTLIL8IdString24global_refcount_storage_E, align 8, !tbaa !11
  %30 = getelementptr inbounds nuw i32, ptr %29, i64 %28
  %31 = load i32, ptr %30, align 4, !tbaa !15
  %32 = add nsw i32 %31, -1
  store i32 %32, ptr %30, align 4, !tbaa !15
  %33 = icmp sgt i32 %31, 1
  br i1 %33, label %_ZN5Yosys5RTLIL8IdStringD2Ev.exit, label %34

34:                                               ; preds = %27
  invoke void @_ZN5Yosys5RTLIL8IdString14free_referenceEi(i32 noundef %23)
          to label %._ZN5Yosys5RTLIL8IdStringD2Ev.exit_crit_edge unwind label %35

._ZN5Yosys5RTLIL8IdStringD2Ev.exit_crit_edge:     ; preds = %34
  %.pre = load i8, ptr @_ZN5Yosys5RTLIL8IdString17destruct_guard_okE, align 1, !tbaa !16, !range !18
  br label %_ZN5Yosys5RTLIL8IdStringD2Ev.exit

35:                                               ; preds = %34
  %36 = landingpad { ptr, i32 }
          catch ptr null
  %37 = extractvalue { ptr, i32 } %36, 0
  call void @__clang_call_terminate(ptr %37) #23
  unreachable

_ZN5Yosys5RTLIL8IdStringD2Ev.exit:                ; preds = %._ZN5Yosys5RTLIL8IdStringD2Ev.exit_crit_edge, %22, %27
  %38 = phi i8 [ %.pre, %._ZN5Yosys5RTLIL8IdStringD2Ev.exit_crit_edge ], [ %24, %22 ], [ 1, %27 ]
  %39 = load i32, ptr %5, align 4, !tbaa !6
  %40 = trunc nuw i8 %38 to i1
  %41 = icmp ne i32 %39, 0
  %or.cond.i.i10 = and i1 %41, %40
  br i1 %or.cond.i.i10, label %42, label %_ZN5Yosys5RTLIL8IdStringD2Ev.exit11

42:                                               ; preds = %_ZN5Yosys5RTLIL8IdStringD2Ev.exit
  %43 = sext i32 %39 to i64
  %44 = load ptr, ptr @_ZN5Yosys5RTLIL8IdString24global_refcount_storage_E, align 8, !tbaa !11
  %45 = getelementptr inbounds nuw i32, ptr %44, i64 %43
  %46 = load i32, ptr %45, align 4, !tbaa !15
  %47 = add nsw i32 %46, -1
  store i32 %47, ptr %45, align 4, !tbaa !15
  %48 = icmp sgt i32 %46, 1
  br i1 %48, label %_ZN5Yosys5RTLIL8IdStringD2Ev.exit11, label %49

49:                                               ; preds = %42
  invoke void @_ZN5Yosys5RTLIL8IdString14free_referenceEi(i32 noundef %39)
          to label %_ZN5Yosys5RTLIL8IdStringD2Ev.exit11 unwind label %50

50:                                               ; preds = %49
  %51 = landingpad { ptr, i32 }
          catch ptr null
  %52 = extractvalue { ptr, i32 } %51, 0
  call void @__clang_call_terminate(ptr %52) #23
  unreachable

_ZN5Yosys5RTLIL8IdStringD2Ev.exit11:              ; preds = %_ZN5Yosys5RTLIL8IdStringD2Ev.exit, %42, %49
  store ptr getelementptr inbounds nuw inrange(-16, 24) (i8, ptr @_ZTVN5Yosys3AST7BindingE, i64 16), ptr %0, align 8, !tbaa !20
  %53 = invoke noundef ptr @_ZNK5Yosys3AST7AstNode5cloneEv(ptr noundef nonnull align 8 dereferenceable(284) %3)
          to label %54 unwind label %58

54:                                               ; preds = %_ZN5Yosys5RTLIL8IdStringD2Ev.exit11
  %55 = getelementptr inbounds nuw i8, ptr %0, i64 24
  store ptr %53, ptr %55, align 8, !tbaa !22
  ret void

56:                                               ; preds = %21
  %57 = landingpad { ptr, i32 }
          cleanup
  call void @_ZN5Yosys5RTLIL8IdStringD2Ev(ptr noundef nonnull align 4 dereferenceable(4) %6) #24
  call void @_ZN5Yosys5RTLIL8IdStringD2Ev(ptr noundef nonnull align 4 dereferenceable(4) %5) #24
  br label %60

58:                                               ; preds = %_ZN5Yosys5RTLIL8IdStringD2Ev.exit11
  %59 = landingpad { ptr, i32 }
          cleanup
  call void @_ZN5Yosys5RTLIL7BindingD2Ev(ptr noundef nonnull align 8 dereferenceable(20) %0) #24
  br label %60

60:                                               ; preds = %58, %56
  %.pn6 = phi { ptr, i32 } [ %59, %58 ], [ %57, %56 ]
  resume { ptr, i32 } %.pn6
}